; Function Attrs: mustprogress uwtable
define { i64, i64 } @_ZN3re28Compiler3NopEv(ptr nocapture noundef nonnull align 8 dereferenceable(212) %this) local_unnamed_addr #0 align 2 {
entry:
  %retval.i = alloca %"struct.re2::Frag", align 8
  %retval = alloca %"struct.re2::Frag", align 8
  %call = tail call noundef i32 @_ZN3re28Compiler9AllocInstEi(ptr noundef nonnull align 8 dereferenceable(212) %this, i32 noundef 1)
  %cmp = icmp slt i32 %call, 0
  br i1 %cmp, label %if.then, label %if.end

if.then:                                          ; preds = %entry
  call void @llvm.lifetime.start.p0(i64 16, ptr nonnull %retval.i)
  store i32 0, ptr %retval.i, align 8
  %retval.i.4.retval.i.4.retval.i.4.retval.4.retval.4.end.i.sroa_idx = getelementptr inbounds i8, ptr %retval.i, i64 4
  store i64 0, ptr %retval.i.4.retval.i.4.retval.i.4.retval.4.retval.4.end.i.sroa_idx, align 4
  %retval.i.12.retval.i.12.retval.i.12.retval.12.retval.12.nullable.i.sroa_idx = getelementptr inbounds i8, ptr %retval.i, i64 12
  store i8 0, ptr %retval.i.12.retval.i.12.retval.i.12.retval.12.retval.12.nullable.i.sroa_idx, align 4
  %retval.i.0.retval.i.0.retval.i.0.retval.0.retval.0..fca.0.load.i = load i64, ptr %retval.i, align 8
  %retval.i.8.retval.i.8.retval.i.8.retval.8.retval.8..fca.1.gep.sroa_idx = getelementptr inbounds i8, ptr %retval.i, i64 8
  %retval.i.8.retval.i.8.retval.i.8.retval.8.retval.8..fca.1.load.i = load i64, ptr %retval.i.8.retval.i.8.retval.i.8.retval.8.retval.8..fca.1.gep.sroa_idx, align 8
  call void @llvm.lifetime.end.p0(i64 16, ptr nonnull %retval.i)
  br label %return

if.end:                                           ; preds = %entry
  %conv.i = zext nneg i32 %call to i64
  %add.ptr.i.i.i.i.i.i.i = getelementptr inbounds i8, ptr %this, i64 128
  %0 = load ptr, ptr %add.ptr.i.i.i.i.i.i.i, align 8
  %arrayidx.i.i = getelementptr inbounds %"class.re2::Prog::Inst", ptr %0, i64 %conv.i
  tail call void @_ZN3re24Prog4Inst7InitNopEj(ptr noundef nonnull align 4 dereferenceable(8) %arrayidx.i.i, i32 noundef 0)
  %shl = shl nuw i32 %call, 1
  %retval.sroa.2.0.insert.ext.i = zext i32 %shl to i64
  %retval.sroa.0.0.insert.insert.i = mul nuw i64 %retval.sroa.2.0.insert.ext.i, 4294967297
  store i32 %call, ptr %retval, align 8
  %retval.4.retval.4.retval.4.end3.i.sroa_idx = getelementptr inbounds i8, ptr %retval, i64 4
  store i64 %retval.sroa.0.0.insert.insert.i, ptr %retval.4.retval.4.retval.4.end3.i.sroa_idx, align 4
  %retval.12.retval.12.retval.12.nullable4.i.sroa_idx = getelementptr inbounds i8, ptr %retval, i64 12
  store i8 1, ptr %retval.12.retval.12.retval.12.nullable4.i.sroa_idx, align 4
  %retval.0.retval.0.retval.0..fca.0.load.pre = load i64, ptr %retval, align 8
  %retval.8.retval.8.retval.8..fca.1.gep.sroa_idx = getelementptr inbounds i8, ptr %retval, i64 8
  %retval.8.retval.8.retval.8..fca.1.load.pre = load i64, ptr %retval.8.retval.8.retval.8..fca.1.gep.sroa_idx, align 8
  br label %return

return:                                           ; preds = %if.end, %if.then
  %retval.8.retval.8..fca.1.load = phi i64 [ %retval.8.retval.8.retval.8..fca.1.load.pre, %if.end ], [ %retval.i.8.retval.i.8.retval.i.8.retval.8.retval.8..fca.1.load.i, %if.then ]
  %retval.0.retval.0..fca.0.load = phi i64 [ %retval.0.retval.0.retval.0..fca.0.load.pre, %if.end ], [ %retval.i.0.retval.i.0.retval.i.0.retval.0.retval.0..fca.0.load.i, %if.then ]
  %.fca.0.insert = insertvalue { i64, i64 } poison, i64 %retval.0.retval.0..fca.0.load, 0
  %.fca.1.insert = insertvalue { i64, i64 } %.fca.0.insert, i64 %retval.8.retval.8..fca.1.load, 1
  ret { i64, i64 } %.fca.1.insert
}